(dp0
cnumpy.core.multiarray
scalar
p1
(cnumpy
dtype
p2
(S'S8'
p3
I0
I1
tp4
Rp5
(I3
S'|'
p6
NNNI8
I1
I0
tp7
bS'itfactly'
p8
tp9
Rp10
g1
(g2
(S'i8'
p11
I0
I1
tp12
Rp13
(I3
S'<'
p14
NNNI-1
I-1
I0
tp15
bS'\x0f\x00\x00\x00\x00\x00\x00\x00'
p16
tp17
Rp18
sg1
(g2
(S'S6'
p19
I0
I1
tp20
Rp21
(I3
S'|'
p22
NNNI6
I1
I0
tp23
bS'senato'
p24
tp25
Rp26
g1
(g13
S'\x1c\x00\x00\x00\x00\x00\x00\x00'
p27
tp28
Rp29
sg1
(g2
(S'S3'
p30
I0
I1
tp31
Rp32
(I3
S'|'
p33
NNNI3
I1
I0
tp34
bS'lse'
p35
tp36
Rp37
g1
(g13
S'\x12\x00\x00\x00\x00\x00\x00\x00'
p38
tp39
Rp40
sg1
(g2
(S'S9'
p41
I0
I1
tp42
Rp43
(I3
S'|'
p44
NNNI9
I1
I0
tp45
bS'tamilyogi'
p46
tp47
Rp48
g1
(g13
S'\x1f\x00\x00\x00\x00\x00\x00\x00'
p49
tp50
Rp51
sg1
(g2
(S'S7'
p52
I0
I1
tp53
Rp54
(I3
S'|'
p55
NNNI7
I1
I0
tp56
bS'bizrate'
p57
tp58
Rp59
g1
(g13
S'\x03\x00\x00\x00\x00\x00\x00\x00'
p60
tp61
Rp62
sg1
(g2
(S'S3'
p63
I0
I1
tp64
Rp65
(I3
S'|'
p66
NNNI3
I1
I0
tp67
bS'uea'
p68
tp69
Rp70
g1
(g13
S'#\x00\x00\x00\x00\x00\x00\x00'
p71
tp72
Rp73
sg1
(g2
(S'S3'
p74
I0
I1
tp75
Rp76
(I3
S'|'
p77
NNNI3
I1
I0
tp78
bS'rai'
p79
tp80
Rp81
g1
(g13
S'\x19\x00\x00\x00\x00\x00\x00\x00'
p82
tp83
Rp84
sg1
(g2
(S'S8'
p85
I0
I1
tp86
Rp87
(I3
S'|'
p88
NNNI8
I1
I0
tp89
bS'sigonews'
p90
tp91
Rp92
g1
(g13
S'\x1d\x00\x00\x00\x00\x00\x00\x00'
p93
tp94
Rp95
sg1
(g2
(S'S9'
p96
I0
I1
tp97
Rp98
(I3
S'|'
p99
NNNI9
I1
I0
tp100
bS'chinanews'
p101
tp102
Rp103
g1
(g13
S'\x05\x00\x00\x00\x00\x00\x00\x00'
p104
tp105
Rp106
sg1
(g2
(S'S3'
p107
I0
I1
tp108
Rp109
(I3
S'|'
p110
NNNI3
I1
I0
tp111
bS'nyu'
p112
tp113
Rp114
g1
(g13
S'\x16\x00\x00\x00\x00\x00\x00\x00'
p115
tp116
Rp117
sg1
(g2
(S'S4'
p118
I0
I1
tp119
Rp120
(I3
S'|'
p121
NNNI4
I1
I0
tp122
bS'open'
p123
tp124
Rp125
g1
(g13
S'\x17\x00\x00\x00\x00\x00\x00\x00'
p126
tp127
Rp128
sg1
(g2
(S'S14'
p129
I0
I1
tp130
Rp131
(I3
S'|'
p132
NNNI14
I1
I0
tp133
bS'spettacolovivo'
p134
tp135
Rp136
g1
(g13
S'\x1e\x00\x00\x00\x00\x00\x00\x00'
p137
tp138
Rp139
sg1
(g2
(S'S8'
p140
I0
I1
tp141
Rp142
(I3
S'|'
p143
NNNI8
I1
I0
tp144
bS'asianews'
p145
tp146
Rp147
g1
(g13
S'\x01\x00\x00\x00\x00\x00\x00\x00'
p148
tp149
Rp150
sg1
(g2
(S'S9'
p151
I0
I1
tp152
Rp153
(I3
S'|'
p154
NNNI9
I1
I0
tp155
bS'tusciaweb'
p156
tp157
Rp158
g1
(g13
S'"\x00\x00\x00\x00\x00\x00\x00'
p159
tp160
Rp161
sg1
(g2
(S'S8'
p162
I0
I1
tp163
Rp164
(I3
S'|'
p165
NNNI8
I1
I0
tp166
bS'imperial'
p167
tp168
Rp169
g1
(g13
S'\x0c\x00\x00\x00\x00\x00\x00\x00'
p170
tp171
Rp172
sg1
(g2
(S'S10'
p173
I0
I1
tp174
Rp175
(I3
S'|'
p176
NNNI10
I1
I0
tp177
bS'imageshack'
p178
tp179
Rp180
g1
(g13
S'\x0b\x00\x00\x00\x00\x00\x00\x00'
p181
tp182
Rp183
sg1
(g2
(S'S6'
p184
I0
I1
tp185
Rp186
(I3
S'|'
p187
NNNI6
I1
I0
tp188
bS'italia'
p189
tp190
Rp191
g1
(g13
S'\x0e\x00\x00\x00\x00\x00\x00\x00'
p192
tp193
Rp194
sg1
(g2
(S'S7'
p195
I0
I1
tp196
Rp197
(I3
S'|'
p198
NNNI7
I1
I0
tp199
bS'wikidot'
p200
tp201
Rp202
g1
(g13
S'&\x00\x00\x00\x00\x00\x00\x00'
p203
tp204
Rp205
sg1
(g2
(S'S7'
p206
I0
I1
tp207
Rp208
(I3
S'|'
p209
NNNI7
I1
I0
tp210
bS'reading'
p211
tp212
Rp213
g1
(g13
S'\x1a\x00\x00\x00\x00\x00\x00\x00'
p214
tp215
Rp216
sg1
(g2
(S'S3'
p217
I0
I1
tp218
Rp219
(I3
S'|'
p220
NNNI3
I1
I0
tp221
bS'mit'
p222
tp223
Rp224
g1
(g13
S'\x15\x00\x00\x00\x00\x00\x00\x00'
p225
tp226
Rp227
sg1
(g2
(S'S6'
p228
I0
I1
tp229
Rp230
(I3
S'|'
p231
NNNI6
I1
I0
tp232
bS'salute'
p233
tp234
Rp235
g1
(g13
S'\x1b\x00\x00\x00\x00\x00\x00\x00'
p236
tp237
Rp238
sg1
(g2
(S'S5'
p239
I0
I1
tp240
Rp241
(I3
S'|'
p242
NNNI5
I1
I0
tp243
bS'baidu'
p244
tp245
Rp246
g1
(g13
S'\x02\x00\x00\x00\x00\x00\x00\x00'
p247
tp248
Rp249
sg1
(g2
(S'S8'
p250
I0
I1
tp251
Rp252
(I3
S'|'
p253
NNNI8
I1
I0
tp254
bS'treccani'
p255
tp256
Rp257
g1
(g13
S'!\x00\x00\x00\x00\x00\x00\x00'
p258
tp259
Rp260
sg1
(g2
(S'S3'
p261
I0
I1
tp262
Rp263
(I3
S'|'
p264
NNNI3
I1
I0
tp265
bS'ufl'
p266
tp267
Rp268
g1
(g13
S'$\x00\x00\x00\x00\x00\x00\x00'
p269
tp270
Rp271
sg1
(g2
(S'S5'
p272
I0
I1
tp273
Rp274
(I3
S'|'
p275
NNNI5
I1
I0
tp276
bS'mapei'
p277
tp278
Rp279
g1
(g13
S'\x14\x00\x00\x00\x00\x00\x00\x00'
p280
tp281
Rp282
sg1
(g2
(S'S4'
p283
I0
I1
tp284
Rp285
(I3
S'|'
p286
NNNI4
I1
I0
tp287
bS'icio'
p288
tp289
Rp290
g1
(g13
S'\n\x00\x00\x00\x00\x00\x00\x00'
p291
tp292
Rp293
sg1
(g2
(S'S10'
p294
I0
I1
tp295
Rp296
(I3
S'|'
p297
NNNI10
I1
I0
tp298
bS'washington'
p299
tp300
Rp301
g1
(g13
S'%\x00\x00\x00\x00\x00\x00\x00'
p302
tp303
Rp304
sg1
(g2
(S'S3'
p305
I0
I1
tp306
Rp307
(I3
S'|'
p308
NNNI3
I1
I0
tp309
bS'kit'
p310
tp311
Rp312
g1
(g13
S'\x10\x00\x00\x00\x00\x00\x00\x00'
p313
tp314
Rp315
sg1
(g2
(S'S2'
p316
I0
I1
tp317
Rp318
(I3
S'|'
p319
NNNI2
I1
I0
tp320
bS'bu'
p321
tp322
Rp323
g1
(g13
S'\x04\x00\x00\x00\x00\x00\x00\x00'
p324
tp325
Rp326
sg1
(g2
(S'S5'
p327
I0
I1
tp328
Rp329
(I3
S'|'
p330
NNNI5
I1
I0
tp331
bS'leeds'
p332
tp333
Rp334
g1
(g13
S'\x11\x00\x00\x00\x00\x00\x00\x00'
p335
tp336
Rp337
sg1
(g2
(S'S6'
p338
I0
I1
tp339
Rp340
(I3
S'|'
p341
NNNI6
I1
I0
tp342
bS'apache'
p343
tp344
Rp345
g1
(g13
S'\x00\x00\x00\x00\x00\x00\x00\x00'
p346
tp347
Rp348
sg1
(g2
(S'S9'
p349
I0
I1
tp350
Rp351
(I3
S'|'
p352
NNNI9
I1
I0
tp353
bS'irishnews'
p354
tp355
Rp356
g1
(g13
S'\r\x00\x00\x00\x00\x00\x00\x00'
p357
tp358
Rp359
sg1
(g2
(S'S3'
p360
I0
I1
tp361
Rp362
(I3
S'|'
p363
NNNI3
I1
I0
tp364
bS'gnu'
p365
tp366
Rp367
g1
(g13
S'\x07\x00\x00\x00\x00\x00\x00\x00'
p368
tp369
Rp370
sg1
(g2
(S'S7'
p371
I0
I1
tp372
Rp373
(I3
S'|'
p374
NNNI7
I1
I0
tp375
bS'governo'
p376
tp377
Rp378
g1
(g13
S'\t\x00\x00\x00\x00\x00\x00\x00'
p379
tp380
Rp381
sg1
(g2
(S'S2'
p382
I0
I1
tp383
Rp384
(I3
S'|'
p385
NNNI2
I1
I0
tp386
bS'ox'
p387
tp388
Rp389
g1
(g13
S'\x18\x00\x00\x00\x00\x00\x00\x00'
p390
tp391
Rp392
sg1
(g2
(S'S5'
p393
I0
I1
tp394
Rp395
(I3
S'|'
p396
NNNI5
I1
I0
tp397
bS'lycos'
p398
tp399
Rp400
g1
(g13
S'\x13\x00\x00\x00\x00\x00\x00\x00'
p401
tp402
Rp403
sg1
(g2
(S'S5'
p404
I0
I1
tp405
Rp406
(I3
S'|'
p407
NNNI5
I1
I0
tp408
bS'gohoi'
p409
tp410
Rp411
g1
(g13
S'\x08\x00\x00\x00\x00\x00\x00\x00'
p412
tp413
Rp414
sg1
(g2
(S'S5'
p415
I0
I1
tp416
Rp417
(I3
S'|'
p418
NNNI5
I1
I0
tp419
bS'tapad'
p420
tp421
Rp422
g1
(g13
S' \x00\x00\x00\x00\x00\x00\x00'
p423
tp424
Rp425
sg1
(g2
(S'S6'
p426
I0
I1
tp427
Rp428
(I3
S'|'
p429
NNNI6
I1
I0
tp430
bS'exeter'
p431
tp432
Rp433
g1
(g13
S'\x06\x00\x00\x00\x00\x00\x00\x00'
p434
tp435
Rp436
s.